target datalayout = "e-m:e-p270:32:32-p271:32:32-p272:64:64-i64:64-i128:128-f80:128-n8:16:32:64-S128"
target triple = "x86_64-pc-linux-gnu"

; Function Attrs: mustprogress nounwind uwtable
define void @_ZN19OpenColorIO_v2_5dev15MatrixTransform8IdentityEPdS1_(ptr noundef %0, ptr noundef %1) #8 align 2 {
  %3 = alloca ptr, align 8
  %4 = alloca ptr, align 8
  store ptr %0, ptr %3, align 8, !tbaa !70
  store ptr %1, ptr %4, align 8, !tbaa !70
  %5 = load ptr, ptr %3, align 8, !tbaa !70
  %6 = icmp ne ptr %5, null
  br i1 %6, label %7, label %17

7:                                                ; preds = %2
  %8 = load ptr, ptr %3, align 8, !tbaa !70
  call void @llvm.memset.p0.i64(ptr align 8 %8, i8 0, i64 128, i1 false)
  %9 = load ptr, ptr %3, align 8, !tbaa !70
  %10 = getelementptr inbounds double, ptr %9, i64 0
  store double 1.000000e+00, ptr %10, align 8, !tbaa !75
  %11 = load ptr, ptr %3, align 8, !tbaa !70
  %12 = getelementptr inbounds double, ptr %11, i64 5
  store double 1.000000e+00, ptr %12, align 8, !tbaa !75
  %13 = load ptr, ptr %3, align 8, !tbaa !70
  %14 = getelementptr inbounds double, ptr %13, i64 10
  store double 1.000000e+00, ptr %14, align 8, !tbaa !75
  %15 = load ptr, ptr %3, align 8, !tbaa !70
  %16 = getelementptr inbounds double, ptr %15, i64 15
  store double 1.000000e+00, ptr %16, align 8, !tbaa !75
  br label %17

17:                                               ; preds = %7, %2
  %18 = load ptr, ptr %4, align 8, !tbaa !70
  %19 = icmp ne ptr %18, null
  br i1 %19, label %20, label %29

20:                                               ; preds = %17
  %21 = load ptr, ptr %4, align 8, !tbaa !70
  %22 = getelementptr inbounds double, ptr %21, i64 0
  store double 0.000000e+00, ptr %22, align 8, !tbaa !75
  %23 = load ptr, ptr %4, align 8, !tbaa !70
  %24 = getelementptr inbounds double, ptr %23, i64 1
  store double 0.000000e+00, ptr %24, align 8, !tbaa !75
  %25 = load ptr, ptr %4, align 8, !tbaa !70
  %26 = getelementptr inbounds double, ptr %25, i64 2
  store double 0.000000e+00, ptr %26, align 8, !tbaa !75
  %27 = load ptr, ptr %4, align 8, !tbaa !70
  %28 = getelementptr inbounds double, ptr %27, i64 3
  store double 0.000000e+00, ptr %28, align 8, !tbaa !75
  br label %29

29:                                               ; preds = %20, %17
  ret void
}

; Function Attrs: mustprogress uwtable
define void @_ZN19OpenColorIO_v2_5dev15MatrixTransform4ViewEPdS1_PiPKd(ptr noundef %0, ptr noundef %1, ptr noundef %2, ptr noundef %3) #4 align 2 {
  %5 = alloca ptr, align 8
  %6 = alloca ptr, align 8
  %7 = alloca ptr, align 8
  %8 = alloca ptr, align 8
  %9 = alloca i32, align 4
  %10 = alloca [3 x double], align 16
  %11 = alloca i32, align 4
  %12 = alloca double, align 8
  %13 = alloca i32, align 4
  %14 = alloca i32, align 4
  %15 = alloca i32, align 4
  store ptr %0, ptr %5, align 8, !tbaa !70
  store ptr %1, ptr %6, align 8, !tbaa !70
  store ptr %2, ptr %7, align 8, !tbaa !87
  store ptr %3, ptr %8, align 8, !tbaa !70
  %16 = load ptr, ptr %7, align 8, !tbaa !87
  %17 = icmp ne ptr %16, null
  br i1 %17, label %18, label %21

18:                                               ; preds = %4
  %19 = load ptr, ptr %8, align 8, !tbaa !70
  %20 = icmp ne ptr %19, null
  br i1 %20, label %22, label %21

21:                                               ; preds = %18, %4
  br label %165

22:                                               ; preds = %18
  %23 = load ptr, ptr %6, align 8, !tbaa !70
  %24 = icmp ne ptr %23, null
  br i1 %24, label %25, label %34

25:                                               ; preds = %22
  %26 = load ptr, ptr %6, align 8, !tbaa !70
  %27 = getelementptr inbounds double, ptr %26, i64 0
  store double 0.000000e+00, ptr %27, align 8, !tbaa !75
  %28 = load ptr, ptr %6, align 8, !tbaa !70
  %29 = getelementptr inbounds double, ptr %28, i64 1
  store double 0.000000e+00, ptr %29, align 8, !tbaa !75
  %30 = load ptr, ptr %6, align 8, !tbaa !70
  %31 = getelementptr inbounds double, ptr %30, i64 2
  store double 0.000000e+00, ptr %31, align 8, !tbaa !75
  %32 = load ptr, ptr %6, align 8, !tbaa !70
  %33 = getelementptr inbounds double, ptr %32, i64 3
  store double 0.000000e+00, ptr %33, align 8, !tbaa !75
  br label %34

34:                                               ; preds = %25, %22
  %35 = load ptr, ptr %5, align 8, !tbaa !70
  %36 = icmp ne ptr %35, null
  br i1 %36, label %37, label %165

37:                                               ; preds = %34
  %38 = load ptr, ptr %5, align 8, !tbaa !70
  call void @llvm.memset.p0.i64(ptr align 8 %38, i8 0, i64 128, i1 false)
  %39 = load ptr, ptr %7, align 8, !tbaa !87
  %40 = getelementptr inbounds i32, ptr %39, i64 0
  %41 = load i32, ptr %40, align 4, !tbaa !79
  %42 = icmp ne i32 %41, 0
  br i1 %42, label %43, label %60

43:                                               ; preds = %37
  %44 = load ptr, ptr %7, align 8, !tbaa !87
  %45 = getelementptr inbounds i32, ptr %44, i64 1
  %46 = load i32, ptr %45, align 4, !tbaa !79
  %47 = icmp ne i32 %46, 0
  br i1 %47, label %48, label %60

48:                                               ; preds = %43
  %49 = load ptr, ptr %7, align 8, !tbaa !87
  %50 = getelementptr inbounds i32, ptr %49, i64 2
  %51 = load i32, ptr %50, align 4, !tbaa !79
  %52 = icmp ne i32 %51, 0
  br i1 %52, label %53, label %60

53:                                               ; preds = %48
  %54 = load ptr, ptr %7, align 8, !tbaa !87
  %55 = getelementptr inbounds i32, ptr %54, i64 3
  %56 = load i32, ptr %55, align 4, !tbaa !79
  %57 = icmp ne i32 %56, 0
  br i1 %57, label %58, label %60

58:                                               ; preds = %53
  %59 = load ptr, ptr %5, align 8, !tbaa !70
  call void @_ZN19OpenColorIO_v2_5dev15MatrixTransform8IdentityEPdS1_(ptr noundef %59, ptr noundef null)
  br label %164

60:                                               ; preds = %53, %48, %43, %37
  %61 = load ptr, ptr %7, align 8, !tbaa !87
  %62 = getelementptr inbounds i32, ptr %61, i64 3
  %63 = load i32, ptr %62, align 4, !tbaa !79
  %64 = icmp ne i32 %63, 0
  br i1 %64, label %65, label %81

65:                                               ; preds = %60
  call void @llvm.lifetime.start.p0(i64 4, ptr %9) #3
  store i32 0, ptr %9, align 4, !tbaa !79
  br label %66

66:                                               ; preds = %77, %65
  %67 = load i32, ptr %9, align 4, !tbaa !79
  %68 = icmp slt i32 %67, 4
  br i1 %68, label %70, label %69

69:                                               ; preds = %66
  call void @llvm.lifetime.end.p0(i64 4, ptr %9) #3
  br label %80

70:                                               ; preds = %66
  %71 = load ptr, ptr %5, align 8, !tbaa !70
  %72 = load i32, ptr %9, align 4, !tbaa !79
  %73 = mul nsw i32 4, %72
  %74 = add nsw i32 %73, 3
  %75 = sext i32 %74 to i64
  %76 = getelementptr inbounds double, ptr %71, i64 %75
  store double 1.000000e+00, ptr %76, align 8, !tbaa !75
  br label %77

77:                                               ; preds = %70
  %78 = load i32, ptr %9, align 4, !tbaa !79
  %79 = add nsw i32 %78, 1
  store i32 %79, ptr %9, align 4, !tbaa !79
  br label %66, !llvm.loop !89

80:                                               ; preds = %69
  br label %163

81:                                               ; preds = %60
  call void @llvm.lifetime.start.p0(i64 24, ptr %10) #3
  call void @llvm.memset.p0.i64(ptr align 16 %10, i8 0, i64 24, i1 false)
  call void @llvm.lifetime.start.p0(i64 4, ptr %11) #3
  store i32 0, ptr %11, align 4, !tbaa !79
  br label %82

82:                                               ; preds = %104, %81
  %83 = load i32, ptr %11, align 4, !tbaa !79
  %84 = icmp slt i32 %83, 3
  br i1 %84, label %86, label %85

85:                                               ; preds = %82
  call void @llvm.lifetime.end.p0(i64 4, ptr %11) #3
  br label %107

86:                                               ; preds = %82
  %87 = load ptr, ptr %8, align 8, !tbaa !70
  %88 = load i32, ptr %11, align 4, !tbaa !79
  %89 = sext i32 %88 to i64
  %90 = getelementptr inbounds double, ptr %87, i64 %89
  %91 = load double, ptr %90, align 8, !tbaa !75
  %92 = load ptr, ptr %7, align 8, !tbaa !87
  %93 = load i32, ptr %11, align 4, !tbaa !79
  %94 = sext i32 %93 to i64
  %95 = getelementptr inbounds i32, ptr %92, i64 %94
  %96 = load i32, ptr %95, align 4, !tbaa !79
  %97 = icmp ne i32 %96, 0
  %98 = select i1 %97, double 1.000000e+00, double 0.000000e+00
  %99 = load i32, ptr %11, align 4, !tbaa !79
  %100 = sext i32 %99 to i64
  %101 = getelementptr inbounds [3 x double], ptr %10, i64 0, i64 %100
  %102 = load double, ptr %101, align 8, !tbaa !75
  %103 = call double @llvm.fmuladd.f64(double %91, double %98, double %102)
  store double %103, ptr %101, align 8, !tbaa !75
  br label %104

104:                                              ; preds = %86
  %105 = load i32, ptr %11, align 4, !tbaa !79
  %106 = add nsw i32 %105, 1
  store i32 %106, ptr %11, align 4, !tbaa !79
  br label %82, !llvm.loop !90

107:                                              ; preds = %85
  call void @llvm.lifetime.start.p0(i64 8, ptr %12) #3
  %108 = getelementptr inbounds [3 x double], ptr %10, i64 0, i64 0
  %109 = load double, ptr %108, align 16, !tbaa !75
  %110 = getelementptr inbounds [3 x double], ptr %10, i64 0, i64 1
  %111 = load double, ptr %110, align 8, !tbaa !75
  %112 = fadd double %109, %111
  %113 = getelementptr inbounds [3 x double], ptr %10, i64 0, i64 2
  %114 = load double, ptr %113, align 16, !tbaa !75
  %115 = fadd double %112, %114
  store double %115, ptr %12, align 8, !tbaa !75
  %116 = load double, ptr %12, align 8, !tbaa !75
  %117 = call noundef zeroext i1 @_ZN19OpenColorIO_v2_5dev19IsScalarEqualToZeroIdEEbT_(double noundef %116)
  br i1 %117, label %131, label %118

118:                                              ; preds = %107
  %119 = load double, ptr %12, align 8, !tbaa !75
  %120 = getelementptr inbounds [3 x double], ptr %10, i64 0, i64 0
  %121 = load double, ptr %120, align 16, !tbaa !75
  %122 = fdiv double %121, %119
  store double %122, ptr %120, align 16, !tbaa !75
  %123 = load double, ptr %12, align 8, !tbaa !75
  %124 = getelementptr inbounds [3 x double], ptr %10, i64 0, i64 1
  %125 = load double, ptr %124, align 8, !tbaa !75
  %126 = fdiv double %125, %123
  store double %126, ptr %124, align 8, !tbaa !75
  %127 = load double, ptr %12, align 8, !tbaa !75
  %128 = getelementptr inbounds [3 x double], ptr %10, i64 0, i64 2
  %129 = load double, ptr %128, align 16, !tbaa !75
  %130 = fdiv double %129, %127
  store double %130, ptr %128, align 16, !tbaa !75
  br label %131

131:                                              ; preds = %118, %107
  call void @llvm.lifetime.start.p0(i64 4, ptr %13) #3
  store i32 0, ptr %13, align 4, !tbaa !79
  br label %132

132:                                              ; preds = %157, %131
  %133 = load i32, ptr %13, align 4, !tbaa !79
  %134 = icmp slt i32 %133, 3
  br i1 %134, label %136, label %135

135:                                              ; preds = %132
  store i32 8, ptr %14, align 4
  call void @llvm.lifetime.end.p0(i64 4, ptr %13) #3
  br label %160

136:                                              ; preds = %132
  call void @llvm.lifetime.start.p0(i64 4, ptr %15) #3
  store i32 0, ptr %15, align 4, !tbaa !79
  br label %137

137:                                              ; preds = %153, %136
  %138 = load i32, ptr %15, align 4, !tbaa !79
  %139 = icmp slt i32 %138, 3
  br i1 %139, label %141, label %140

140:                                              ; preds = %137
  store i32 11, ptr %14, align 4
  call void @llvm.lifetime.end.p0(i64 4, ptr %15) #3
  br label %156

141:                                              ; preds = %137
  %142 = load i32, ptr %15, align 4, !tbaa !79
  %143 = sext i32 %142 to i64
  %144 = getelementptr inbounds [3 x double], ptr %10, i64 0, i64 %143
  %145 = load double, ptr %144, align 8, !tbaa !75
  %146 = load ptr, ptr %5, align 8, !tbaa !70
  %147 = load i32, ptr %13, align 4, !tbaa !79
  %148 = mul nsw i32 4, %147
  %149 = load i32, ptr %15, align 4, !tbaa !79
  %150 = add nsw i32 %148, %149
  %151 = sext i32 %150 to i64
  %152 = getelementptr inbounds double, ptr %146, i64 %151
  store double %145, ptr %152, align 8, !tbaa !75
  br label %153

153:                                              ; preds = %141
  %154 = load i32, ptr %15, align 4, !tbaa !79
  %155 = add nsw i32 %154, 1
  store i32 %155, ptr %15, align 4, !tbaa !79
  br label %137, !llvm.loop !91

156:                                              ; preds = %140
  br label %157

157:                                              ; preds = %156
  %158 = load i32, ptr %13, align 4, !tbaa !79
  %159 = add nsw i32 %158, 1
  store i32 %159, ptr %13, align 4, !tbaa !79
  br label %132, !llvm.loop !92

160:                                              ; preds = %135
  %161 = load ptr, ptr %5, align 8, !tbaa !70
  %162 = getelementptr inbounds double, ptr %161, i64 15
  store double 1.000000e+00, ptr %162, align 8, !tbaa !75
  call void @llvm.lifetime.end.p0(i64 8, ptr %12) #3
  call void @llvm.lifetime.end.p0(i64 24, ptr %10) #3
  br label %163

163:                                              ; preds = %160, %80
  br label %164

164:                                              ; preds = %163, %58
  br label %165

165:                                              ; preds = %21, %164, %34
  ret void
}