; Function Attrs: mustprogress uwtable
define void @_ZN19OpenColorIO_v2_5dev15MatrixTransform4ViewEPdS1_PiPKd(ptr noundef writeonly %0, ptr noundef writeonly %1, ptr noundef readonly %2, ptr noundef readonly %3) local_unnamed_addr #3 align 2 {
  %5 = alloca [3 x double], align 16
  %6 = icmp ne ptr %2, null
  %7 = icmp ne ptr %3, null
  %or.cond = and i1 %6, %7
  br i1 %or.cond, label %8, label %.loopexit

8:                                                ; preds = %4
  %.not = icmp eq ptr %1, null
  br i1 %.not, label %10, label %9

9:                                                ; preds = %8
  tail call void @llvm.memset.p0.i64(ptr noundef nonnull align 8 dereferenceable(32) %1, i8 0, i64 32, i1 false)
  br label %10

10:                                               ; preds = %9, %8
  %.not46 = icmp eq ptr %0, null
  br i1 %.not46, label %.loopexit, label %11

11:                                               ; preds = %10
  tail call void @llvm.memset.p0.i64(ptr noundef nonnull align 8 dereferenceable(128) %0, i8 0, i64 128, i1 false)
  %12 = load i32, ptr %2, align 4, !tbaa !28
  %.not47 = icmp eq i32 %12, 0
  br i1 %.not47, label %26, label %13

13:                                               ; preds = %11
  %14 = getelementptr inbounds nuw i8, ptr %2, i64 4
  %15 = load i32, ptr %14, align 4, !tbaa !28
  %.not48 = icmp eq i32 %15, 0
  br i1 %.not48, label %26, label %16

16:                                               ; preds = %13
  %17 = getelementptr inbounds nuw i8, ptr %2, i64 8
  %18 = load i32, ptr %17, align 4, !tbaa !28
  %.not49 = icmp eq i32 %18, 0
  br i1 %.not49, label %26, label %19

19:                                               ; preds = %16
  %20 = getelementptr inbounds nuw i8, ptr %2, i64 12
  %21 = load i32, ptr %20, align 4, !tbaa !28
  %.not50 = icmp eq i32 %21, 0
  br i1 %.not50, label %26, label %_ZN19OpenColorIO_v2_5dev15MatrixTransform8IdentityEPdS1_.exit

_ZN19OpenColorIO_v2_5dev15MatrixTransform8IdentityEPdS1_.exit: ; preds = %19
  %22 = getelementptr inbounds nuw i8, ptr %0, i64 8
  tail call void @llvm.memset.p0.i64(ptr noundef nonnull align 8 dereferenceable(112) %22, i8 0, i64 112, i1 false)
  store double 1.000000e+00, ptr %0, align 8, !tbaa !67
  %23 = getelementptr inbounds nuw i8, ptr %0, i64 40
  store double 1.000000e+00, ptr %23, align 8, !tbaa !67
  %24 = getelementptr inbounds nuw i8, ptr %0, i64 80
  store double 1.000000e+00, ptr %24, align 8, !tbaa !67
  %25 = getelementptr inbounds nuw i8, ptr %0, i64 120
  store double 1.000000e+00, ptr %25, align 8, !tbaa !67
  br label %.loopexit

26:                                               ; preds = %19, %16, %13, %11
  %27 = getelementptr inbounds nuw i8, ptr %2, i64 12
  %28 = load i32, ptr %27, align 4, !tbaa !28
  %.not51 = icmp eq i32 %28, 0
  br i1 %.not51, label %32, label %.preheader53

.preheader53:                                     ; preds = %26, %.preheader53
  %indvars.iv = phi i64 [ %indvars.iv.next, %.preheader53 ], [ 0, %26 ]
  %29 = shl nuw nsw i64 %indvars.iv, 2
  %30 = or disjoint i64 %29, 3
  %31 = getelementptr inbounds nuw double, ptr %0, i64 %30
  store double 1.000000e+00, ptr %31, align 8, !tbaa !67
  %indvars.iv.next = add nuw nsw i64 %indvars.iv, 1
  %exitcond.not = icmp eq i64 %indvars.iv.next, 4
  br i1 %exitcond.not, label %.loopexit, label %.preheader53, !llvm.loop !71

32:                                               ; preds = %26
  call void @llvm.lifetime.start.p0(i64 24, ptr nonnull %5) #27
  call void @llvm.memset.p0.i64(ptr noundef nonnull align 16 dereferenceable(24) %5, i8 0, i64 24, i1 false)
  br label %42

33:                                               ; preds = %42
  %34 = load double, ptr %5, align 16, !tbaa !67
  %35 = getelementptr inbounds nuw i8, ptr %5, i64 8
  %36 = load double, ptr %35, align 8, !tbaa !67
  %37 = fadd double %34, %36
  %38 = getelementptr inbounds nuw i8, ptr %5, i64 16
  %39 = load double, ptr %38, align 16, !tbaa !67
  %40 = fadd double %37, %39
  %41 = tail call noundef zeroext i1 @_ZN19OpenColorIO_v2_5dev19IsScalarEqualToZeroIdEEbT_(double noundef %40)
  br i1 %41, label %.preheader.preheader, label %51

42:                                               ; preds = %32, %42
  %indvars.iv59 = phi i64 [ 0, %32 ], [ %indvars.iv.next60, %42 ]
  %43 = getelementptr inbounds nuw double, ptr %3, i64 %indvars.iv59
  %44 = load double, ptr %43, align 8, !tbaa !67
  %45 = getelementptr inbounds nuw i32, ptr %2, i64 %indvars.iv59
  %46 = load i32, ptr %45, align 4, !tbaa !28
  %.not52 = icmp eq i32 %46, 0
  %47 = select i1 %.not52, double 0.000000e+00, double 1.000000e+00
  %48 = getelementptr inbounds nuw [3 x double], ptr %5, i64 0, i64 %indvars.iv59
  %49 = load double, ptr %48, align 8, !tbaa !67
  %50 = tail call double @llvm.fmuladd.f64(double %44, double %47, double %49)
  store double %50, ptr %48, align 8, !tbaa !67
  %indvars.iv.next60 = add nuw nsw i64 %indvars.iv59, 1
  %exitcond62.not = icmp eq i64 %indvars.iv.next60, 3
  br i1 %exitcond62.not, label %33, label %42, !llvm.loop !72

51:                                               ; preds = %33
  %52 = fdiv double %34, %40
  store double %52, ptr %5, align 16, !tbaa !67
  %53 = fdiv double %36, %40
  store double %53, ptr %35, align 8, !tbaa !67
  %54 = fdiv double %39, %40
  store double %54, ptr %38, align 16, !tbaa !67
  br label %.preheader.preheader

.preheader.preheader:                             ; preds = %51, %33
  br label %.preheader

.preheader:                                       ; preds = %.preheader.preheader, %.preheader
  %indvar = phi i64 [ %indvar.next, %.preheader ], [ 0, %.preheader.preheader ]
  %55 = shl nuw nsw i64 %indvar, 5
  %scevgep = getelementptr nuw i8, ptr %0, i64 %55
  call void @llvm.memcpy.p0.p0.i64(ptr noundef nonnull align 8 dereferenceable(24) %scevgep, ptr noundef nonnull align 16 dereferenceable(24) %5, i64 24, i1 false), !tbaa !67
  %indvar.next = add nuw nsw i64 %indvar, 1
  %exitcond67.not = icmp eq i64 %indvar.next, 3
  br i1 %exitcond67.not, label %56, label %.preheader, !llvm.loop !73

56:                                               ; preds = %.preheader
  %57 = getelementptr inbounds nuw i8, ptr %0, i64 120
  store double 1.000000e+00, ptr %57, align 8, !tbaa !67
  call void @llvm.lifetime.end.p0(i64 24, ptr nonnull %5) #27
  br label %.loopexit

.loopexit:                                        ; preds = %.preheader53, %_ZN19OpenColorIO_v2_5dev15MatrixTransform8IdentityEPdS1_.exit, %56, %4, %10
  ret void
}